(dp1
S'hlayer'
p2
(dp3
I0
(lp4
F3.0519341993847924
aF3.0737151808298093
aF-1.7289491459248341
asI1
(lp5
F1.5056859345202056
aF1.5091114148538385
aF-1.7470019333184341
assS'olayer'
p6
(dp7
I0
(lp8
F2.4202174602152513
aF-2.5850219821282581
ass.